Certificate:
    Data:
        Version: 3 (0x2)
        Serial Number: 4096 (0x1000)
        Signature Algorithm: sha1WithRSAEncryption
        Issuer: C=GB, ST=London, L=London, O=lynxman demo, OU=puppet, CN=CA Cert/emailAddress=marc@uknocherry.com
        Validity
            Not Before: Aug 14 10:47:06 2016 GMT
            Not After : Aug 12 10:47:06 2026 GMT
        Subject: C=GB, ST=London, O=lynxman demo, OU=puppet, CN=Consul Cert/emailAddress=marc@ukoncherry.com
        Subject Public Key Info:
            Public Key Algorithm: rsaEncryption
            RSA Public Key: (1024 bit)
                Modulus (1024 bit):
                    00:a3:6d:ab:07:72:30:a1:c2:d6:26:fc:87:d9:94:
                    bc:f0:4d:a8:be:28:48:22:9a:45:2c:fc:20:bb:4a:
                    4c:89:61:25:fd:7a:cd:e0:11:db:7e:6f:b6:6b:02:
                    b3:22:44:c2:9f:e1:c3:bd:c6:27:38:f9:f7:4f:a7:
                    a5:50:c8:64:ea:0c:34:37:36:26:2e:e2:c2:2f:90:
                    6a:25:73:90:62:c9:1c:3b:0f:82:69:1c:d5:3f:12:
                    44:77:15:cd:8c:3b:b9:3e:4f:45:4a:cd:cc:3b:89:
                    53:91:23:ad:2c:78:7e:4e:e7:3c:81:e4:60:d7:5e:
                    0c:6c:70:7e:c7:fb:6b:16:ed
                Exponent: 65537 (0x10001)
        X509v3 extensions:
            X509v3 Basic Constraints: 
                CA:FALSE
            Netscape Comment: 
                OpenSSL Generated Certificate
            X509v3 Subject Key Identifier: 
                1F:A5:4A:BF:3A:5C:DA:2D:29:73:28:71:A2:E3:B8:15:84:9E:92:94
            X509v3 Authority Key Identifier: 
                keyid:31:87:88:08:36:54:92:A5:E1:8F:B3:89:69:3C:AC:55:0B:A5:1E:A5

    Signature Algorithm: sha1WithRSAEncryption
        ae:74:7b:a6:76:71:54:b3:40:78:7b:af:f0:f6:76:2d:41:0c:
        e4:cb:95:6a:d2:9f:fa:38:40:7a:09:bc:0c:7f:92:a9:94:aa:
        0e:ec:b1:ca:13:8e:61:d3:2e:b6:db:47:7a:ed:47:72:f2:63:
        c2:d6:ee:69:c9:67:65:0d:b7:bc:da:46:83:7d:76:9b:9a:74:
        f0:d6:4b:99:11:aa:73:18:df:a5:90:d5:b7:4e:bf:75:cc:4e:
        31:86:c8:4b:82:4c:e0:1d:2a:64:54:4e:82:46:2f:f0:52:c5:
        5a:bf:15:59:55:0e:d0:89:40:19:2e:9d:71:b7:d1:ea:15:02:
        6e:97
-----BEGIN CERTIFICATE-----
MIIDATCCAmqgAwIBAgICEAAwDQYJKoZIhvcNAQEFBQAwgY0xCzAJBgNVBAYTAkdC
MQ8wDQYDVQQIEwZMb25kb24xDzANBgNVBAcTBkxvbmRvbjEVMBMGA1UEChMMbHlu
eG1hbiBkZW1vMQ8wDQYDVQQLEwZwdXBwZXQxEDAOBgNVBAMTB0NBIENlcnQxIjAg
BgkqhkiG9w0BCQEWE21hcmNAdWtub2NoZXJyeS5jb20wHhcNMTYwODE0MTA0NzA2
WhcNMjYwODEyMTA0NzA2WjCBgDELMAkGA1UEBhMCR0IxDzANBgNVBAgTBkxvbmRv
bjEVMBMGA1UEChMMbHlueG1hbiBkZW1vMQ8wDQYDVQQLEwZwdXBwZXQxFDASBgNV
BAMTC0NvbnN1bCBDZXJ0MSIwIAYJKoZIhvcNAQkBFhNtYXJjQHVrb25jaGVycnku
Y29tMIGfMA0GCSqGSIb3DQEBAQUAA4GNADCBiQKBgQCjbasHcjChwtYm/IfZlLzw
Tai+KEgimkUs/CC7SkyJYSX9es3gEdt+b7ZrArMiRMKf4cO9xic4+fdPp6VQyGTq
DDQ3NiYu4sIvkGolc5BiyRw7D4JpHNU/EkR3Fc2MO7k+T0VKzcw7iVORI60seH5O
5zyB5GDXXgxscH7H+2sW7QIDAQABo3sweTAJBgNVHRMEAjAAMCwGCWCGSAGG+EIB
DQQfFh1PcGVuU1NMIEdlbmVyYXRlZCBDZXJ0aWZpY2F0ZTAdBgNVHQ4EFgQUH6VK
vzpc2i0pcyhxouO4FYSekpQwHwYDVR0jBBgwFoAUMYeICDZUkqXhj7OJaTysVQul
HqUwDQYJKoZIhvcNAQEFBQADgYEArnR7pnZxVLNAeHuv8PZ2LUEM5MuVatKf+jhA
egm8DH+SqZSqDuyxyhOOYdMutttHeu1HcvJjwtbuaclnZQ23vNpGg312m5p08NZL
mRGqcxjfpZDVt06/dcxOMYbIS4JM4B0qZFROgkYv8FLFWr8VWVUO0IlAGS6dcbfR
6hUCbpc=
-----END CERTIFICATE-----
